	.section	__TEXT,__text,regular,pure_instructions
	.build_version macos, 11, 0
	.private_extern	__ZN3std2rt10lang_start17h13de66f7f0f5eedeE ; -- Begin function _ZN3std2rt10lang_start17h13de66f7f0f5eedeE
	.globl	__ZN3std2rt10lang_start17h13de66f7f0f5eedeE
	.p2align	2
__ZN3std2rt10lang_start17h13de66f7f0f5eedeE: ; @_ZN3std2rt10lang_start17h13de66f7f0f5eedeE
Lfunc_begin0:
	.file	1 "/private/tmp/rust-20241128-8290-tgv7i0/rustc-1.83.0-src/library/std/src" "rt.rs"
	.loc	1 188 0                         ; /private/tmp/rust-20241128-8290-tgv7i0/rustc-1.83.0-src/library/std/src/rt.rs:188:0
	.cfi_startproc
; %bb.0:                                ; %start
	sub	sp, sp, #80
	.cfi_def_cfa_offset 80
	stp	x29, x30, [sp, #64]             ; 16-byte Folded Spill
	add	x29, sp, #64
	.cfi_def_cfa w29, 16
	.cfi_offset w30, -8
	.cfi_offset w29, -16
	mov	x4, x3
	mov	x3, x2
	mov	x2, x1
	stp	x0, x1, [sp, #24]
	stur	x3, [x29, #-24]
	sturb	w4, [x29, #-9]
Ltmp6:
	.loc	1 195 10 prologue_end           ; /private/tmp/rust-20241128-8290-tgv7i0/rustc-1.83.0-src/library/std/src/rt.rs:195:10
	str	x0, [sp, #16]
	.loc	1 194 17                        ; /private/tmp/rust-20241128-8290-tgv7i0/rustc-1.83.0-src/library/std/src/rt.rs:194:17
Lloh0:
	adrp	x1, l_vtable.0@PAGE
Lloh1:
	add	x1, x1, l_vtable.0@PAGEOFF
	add	x0, sp, #16
	bl	__ZN3std2rt19lang_start_internal17hadea728b8c40134bE
	str	x0, [sp, #8]
	.loc	1 194 12 is_stmt 0              ; /private/tmp/rust-20241128-8290-tgv7i0/rustc-1.83.0-src/library/std/src/rt.rs:194:12
	stur	x0, [x29, #-8]
	.cfi_def_cfa wsp, 80
	.loc	1 201 2 epilogue_begin is_stmt 1 ; /private/tmp/rust-20241128-8290-tgv7i0/rustc-1.83.0-src/library/std/src/rt.rs:201:2
	ldp	x29, x30, [sp, #64]             ; 16-byte Folded Reload
	add	sp, sp, #80
	.cfi_def_cfa_offset 0
	.cfi_restore w30
	.cfi_restore w29
	ret
Ltmp7:
	.loh AdrpAdd	Lloh0, Lloh1
Lfunc_end0:
	.cfi_endproc
                                        ; -- End function
	.p2align	2                               ; -- Begin function _ZN3std2rt10lang_start28_$u7b$$u7b$closure$u7d$$u7d$17h48e9e336c9baec50E
__ZN3std2rt10lang_start28_$u7b$$u7b$closure$u7d$$u7d$17h48e9e336c9baec50E: ; @"_ZN3std2rt10lang_start28_$u7b$$u7b$closure$u7d$$u7d$17h48e9e336c9baec50E"
Lfunc_begin1:
	.loc	1 195 0                         ; /private/tmp/rust-20241128-8290-tgv7i0/rustc-1.83.0-src/library/std/src/rt.rs:195:0
	.cfi_startproc
; %bb.0:                                ; %start
	sub	sp, sp, #48
	.cfi_def_cfa_offset 48
	stp	x29, x30, [sp, #32]             ; 16-byte Folded Spill
	add	x29, sp, #32
	.cfi_def_cfa w29, 16
	.cfi_offset w30, -8
	.cfi_offset w29, -16
	str	x0, [sp, #16]
Ltmp8:
	.loc	1 195 70 prologue_end           ; /private/tmp/rust-20241128-8290-tgv7i0/rustc-1.83.0-src/library/std/src/rt.rs:195:70
	ldr	x0, [x0]
	.loc	1 195 18 is_stmt 0              ; /private/tmp/rust-20241128-8290-tgv7i0/rustc-1.83.0-src/library/std/src/rt.rs:195:18
	bl	__ZN3std3sys9backtrace28__rust_begin_short_backtrace17h84777f9723b86d61E
	bl	__ZN54_$LT$$LP$$RP$$u20$as$u20$std..process..Termination$GT$6report17hcdc206f403b7b114E
	strb	w0, [sp, #15]
	add	x8, sp, #15
Ltmp9:
	.file	2 "/private/tmp/rust-20241128-8290-tgv7i0/rustc-1.83.0-src/library/std/src" "process.rs"
	.loc	2 2053 9 is_stmt 1              ; /private/tmp/rust-20241128-8290-tgv7i0/rustc-1.83.0-src/library/std/src/process.rs:2053:9
	stur	x8, [x29, #-8]
Ltmp10:
	.file	3 "/private/tmp/rust-20241128-8290-tgv7i0/rustc-1.83.0-src/library/std/src/sys/pal/unix/process" "process_common.rs"
	.loc	3 636 9                         ; /private/tmp/rust-20241128-8290-tgv7i0/rustc-1.83.0-src/library/std/src/sys/pal/unix/process/process_common.rs:636:9
	and	w0, w0, #0xff
Ltmp11:
	.cfi_def_cfa wsp, 48
	.loc	1 195 93 epilogue_begin         ; /private/tmp/rust-20241128-8290-tgv7i0/rustc-1.83.0-src/library/std/src/rt.rs:195:93
	ldp	x29, x30, [sp, #32]             ; 16-byte Folded Reload
	add	sp, sp, #48
	.cfi_def_cfa_offset 0
	.cfi_restore w30
	.cfi_restore w29
	ret
Ltmp12:
Lfunc_end1:
	.cfi_endproc
                                        ; -- End function
	.p2align	2                               ; -- Begin function _ZN3std3sys9backtrace28__rust_begin_short_backtrace17h84777f9723b86d61E
__ZN3std3sys9backtrace28__rust_begin_short_backtrace17h84777f9723b86d61E: ; @_ZN3std3sys9backtrace28__rust_begin_short_backtrace17h84777f9723b86d61E
Lfunc_begin2:
	.file	4 "/private/tmp/rust-20241128-8290-tgv7i0/rustc-1.83.0-src/library/std/src/sys" "backtrace.rs"
	.loc	4 150 0                         ; /private/tmp/rust-20241128-8290-tgv7i0/rustc-1.83.0-src/library/std/src/sys/backtrace.rs:150:0
	.cfi_startproc
; %bb.0:                                ; %start
	sub	sp, sp, #48
	.cfi_def_cfa_offset 48
	stp	x29, x30, [sp, #32]             ; 16-byte Folded Spill
	add	x29, sp, #32
	.cfi_def_cfa w29, 16
	.cfi_offset w30, -8
	.cfi_offset w29, -16
	str	x0, [sp, #16]
Ltmp13:
	.loc	4 154 18 prologue_end           ; /private/tmp/rust-20241128-8290-tgv7i0/rustc-1.83.0-src/library/std/src/sys/backtrace.rs:154:18
	bl	__ZN4core3ops8function6FnOnce9call_once17hf9ec0cd9193e2a7eE
Ltmp14:
	.file	5 "/private/tmp/rust-20241128-8290-tgv7i0/rustc-1.83.0-src/library/core/src" "hint.rs"
	.loc	5 389 5                         ; /private/tmp/rust-20241128-8290-tgv7i0/rustc-1.83.0-src/library/core/src/hint.rs:389:5
	; InlineAsm Start
	; InlineAsm End
Ltmp15:
	.cfi_def_cfa wsp, 48
	.loc	4 160 2 epilogue_begin          ; /private/tmp/rust-20241128-8290-tgv7i0/rustc-1.83.0-src/library/std/src/sys/backtrace.rs:160:2
	ldp	x29, x30, [sp, #32]             ; 16-byte Folded Reload
	add	sp, sp, #48
	.cfi_def_cfa_offset 0
	.cfi_restore w30
	.cfi_restore w29
	ret
Ltmp16:
Lfunc_end2:
	.cfi_endproc
                                        ; -- End function
	.p2align	2                               ; -- Begin function _ZN4core3fmt9Arguments9new_const17h4738388090e9dce9E
__ZN4core3fmt9Arguments9new_const17h4738388090e9dce9E: ; @_ZN4core3fmt9Arguments9new_const17h4738388090e9dce9E
Lfunc_begin3:
	.file	6 "/private/tmp/rust-20241128-8290-tgv7i0/rustc-1.83.0-src/library/core/src/fmt" "mod.rs"
	.loc	6 337 0                         ; /private/tmp/rust-20241128-8290-tgv7i0/rustc-1.83.0-src/library/core/src/fmt/mod.rs:337:0
	.cfi_startproc
; %bb.0:                                ; %start
	sub	sp, sp, #16
	.cfi_def_cfa_offset 16
	str	x0, [sp, #8]
	mov	w9, #1                          ; =0x1
Ltmp17:
	.loc	6 339 9 prologue_end            ; /private/tmp/rust-20241128-8290-tgv7i0/rustc-1.83.0-src/library/core/src/fmt/mod.rs:339:9
	stp	x0, x9, [x8]
Lloh2:
	adrp	x9, l___unnamed_1@PAGE
Lloh3:
	add	x9, x9, l___unnamed_1@PAGEOFF
	ldp	x10, x9, [x9]
	stp	x10, x9, [x8, #32]
	mov	w9, #8                          ; =0x8
	stp	x9, xzr, [x8, #16]
	.loc	6 340 6 epilogue_begin          ; /private/tmp/rust-20241128-8290-tgv7i0/rustc-1.83.0-src/library/core/src/fmt/mod.rs:340:6
	add	sp, sp, #16
	.cfi_def_cfa_offset 0
	ret
Ltmp18:
	.loh AdrpAdd	Lloh2, Lloh3
Lfunc_end3:
	.cfi_endproc
                                        ; -- End function
	.p2align	2                               ; -- Begin function _ZN4core3ops8function6FnOnce40call_once$u7b$$u7b$vtable.shim$u7d$$u7d$17hb5e6eff70a2e52dfE
__ZN4core3ops8function6FnOnce40call_once$u7b$$u7b$vtable.shim$u7d$$u7d$17hb5e6eff70a2e52dfE: ; @"_ZN4core3ops8function6FnOnce40call_once$u7b$$u7b$vtable.shim$u7d$$u7d$17hb5e6eff70a2e52dfE"
Lfunc_begin4:
	.file	7 "/private/tmp/rust-20241128-8290-tgv7i0/rustc-1.83.0-src/library/core/src/ops" "function.rs"
	.loc	7 250 0                         ; /private/tmp/rust-20241128-8290-tgv7i0/rustc-1.83.0-src/library/core/src/ops/function.rs:250:0
	.cfi_startproc
; %bb.0:                                ; %start
	sub	sp, sp, #32
	.cfi_def_cfa_offset 32
	stp	x29, x30, [sp, #16]             ; 16-byte Folded Spill
	add	x29, sp, #16
	.cfi_def_cfa w29, 16
	.cfi_offset w30, -8
	.cfi_offset w29, -16
	str	x0, [sp, #8]
Ltmp19:
	.loc	7 250 5 prologue_end            ; /private/tmp/rust-20241128-8290-tgv7i0/rustc-1.83.0-src/library/core/src/ops/function.rs:250:5
	ldr	x0, [x0]
	bl	__ZN4core3ops8function6FnOnce9call_once17h735911092a04630bE
	.cfi_def_cfa wsp, 32
	.loc	7 250 5 epilogue_begin is_stmt 0 ; /private/tmp/rust-20241128-8290-tgv7i0/rustc-1.83.0-src/library/core/src/ops/function.rs:250:5
	ldp	x29, x30, [sp, #16]             ; 16-byte Folded Reload
	add	sp, sp, #32
	.cfi_def_cfa_offset 0
	.cfi_restore w30
	.cfi_restore w29
	ret
Ltmp20:
Lfunc_end4:
	.cfi_endproc
                                        ; -- End function
	.p2align	2                               ; -- Begin function _ZN4core3ops8function6FnOnce9call_once17h735911092a04630bE
__ZN4core3ops8function6FnOnce9call_once17h735911092a04630bE: ; @_ZN4core3ops8function6FnOnce9call_once17h735911092a04630bE
Lfunc_begin5:
	.loc	7 250 0 is_stmt 1               ; /private/tmp/rust-20241128-8290-tgv7i0/rustc-1.83.0-src/library/core/src/ops/function.rs:250:0
	.cfi_startproc
	.cfi_personality 155, _rust_eh_personality
	.cfi_lsda 16, Lexception0
; %bb.0:                                ; %start
	sub	sp, sp, #48
	.cfi_def_cfa_offset 48
	stp	x29, x30, [sp, #32]             ; 16-byte Folded Spill
	add	x29, sp, #32
	.cfi_def_cfa w29, 16
	.cfi_offset w30, -8
	.cfi_offset w29, -16
	.cfi_remember_state
	str	x0, [sp]
Ltmp1:
Ltmp21:
	.loc	7 250 5 prologue_end            ; /private/tmp/rust-20241128-8290-tgv7i0/rustc-1.83.0-src/library/core/src/ops/function.rs:250:5
	mov	x0, sp
	bl	__ZN3std2rt10lang_start28_$u7b$$u7b$closure$u7d$$u7d$17h48e9e336c9baec50E
Ltmp2:
; %bb.1:                                ; %bb1
	.cfi_def_cfa wsp, 48
	.loc	7 250 5 epilogue_begin is_stmt 0 ; /private/tmp/rust-20241128-8290-tgv7i0/rustc-1.83.0-src/library/core/src/ops/function.rs:250:5
	ldp	x29, x30, [sp, #32]             ; 16-byte Folded Reload
	add	sp, sp, #48
	.cfi_def_cfa_offset 0
	.cfi_restore w30
	.cfi_restore w29
	ret
Ltmp22:
LBB5_2:                                 ; %cleanup
	.cfi_restore_state
Ltmp3:
	.loc	7 0 5                           ; /private/tmp/rust-20241128-8290-tgv7i0/rustc-1.83.0-src/library/core/src/ops/function.rs:0:5
	str	x0, [sp, #16]
	str	w1, [sp, #24]
	bl	__Unwind_Resume
Lfunc_end5:
	.cfi_endproc
	.section	__TEXT,__gcc_except_tab
	.p2align	2, 0x0
GCC_except_table5:
Lexception0:
	.byte	255                             ; @LPStart Encoding = omit
	.byte	255                             ; @TType Encoding = omit
	.byte	1                               ; Call site Encoding = uleb128
	.uleb128 Lcst_end0-Lcst_begin0
Lcst_begin0:
	.uleb128 Ltmp1-Lfunc_begin5             ; >> Call Site 1 <<
	.uleb128 Ltmp2-Ltmp1                    ;   Call between Ltmp1 and Ltmp2
	.uleb128 Ltmp3-Lfunc_begin5             ;     jumps to Ltmp3
	.byte	0                               ;   On action: cleanup
	.uleb128 Ltmp2-Lfunc_begin5             ; >> Call Site 2 <<
	.uleb128 Lfunc_end5-Ltmp2               ;   Call between Ltmp2 and Lfunc_end5
	.byte	0                               ;     has no landing pad
	.byte	0                               ;   On action: cleanup
Lcst_end0:
	.p2align	2, 0x0
                                        ; -- End function
	.section	__TEXT,__text,regular,pure_instructions
	.p2align	2                               ; -- Begin function _ZN4core3ops8function6FnOnce9call_once17hf9ec0cd9193e2a7eE
__ZN4core3ops8function6FnOnce9call_once17hf9ec0cd9193e2a7eE: ; @_ZN4core3ops8function6FnOnce9call_once17hf9ec0cd9193e2a7eE
Lfunc_begin6:
	.loc	7 250 0 is_stmt 1               ; /private/tmp/rust-20241128-8290-tgv7i0/rustc-1.83.0-src/library/core/src/ops/function.rs:250:0
	.cfi_startproc
; %bb.0:                                ; %start
	sub	sp, sp, #32
	.cfi_def_cfa_offset 32
	stp	x29, x30, [sp, #16]             ; 16-byte Folded Spill
	add	x29, sp, #16
	.cfi_def_cfa w29, 16
	.cfi_offset w30, -8
	.cfi_offset w29, -16
	str	x0, [sp, #8]
Ltmp23:
	.loc	7 250 5 prologue_end            ; /private/tmp/rust-20241128-8290-tgv7i0/rustc-1.83.0-src/library/core/src/ops/function.rs:250:5
	blr	x0
	.cfi_def_cfa wsp, 32
	.loc	7 250 5 epilogue_begin is_stmt 0 ; /private/tmp/rust-20241128-8290-tgv7i0/rustc-1.83.0-src/library/core/src/ops/function.rs:250:5
	ldp	x29, x30, [sp, #16]             ; 16-byte Folded Reload
	add	sp, sp, #32
	.cfi_def_cfa_offset 0
	.cfi_restore w30
	.cfi_restore w29
	ret
Ltmp24:
Lfunc_end6:
	.cfi_endproc
                                        ; -- End function
	.p2align	2                               ; -- Begin function _ZN4core3ptr85drop_in_place$LT$std..rt..lang_start$LT$$LP$$RP$$GT$..$u7b$$u7b$closure$u7d$$u7d$$GT$17h271a1822885737adE
__ZN4core3ptr85drop_in_place$LT$std..rt..lang_start$LT$$LP$$RP$$GT$..$u7b$$u7b$closure$u7d$$u7d$$GT$17h271a1822885737adE: ; @"_ZN4core3ptr85drop_in_place$LT$std..rt..lang_start$LT$$LP$$RP$$GT$..$u7b$$u7b$closure$u7d$$u7d$$GT$17h271a1822885737adE"
Lfunc_begin7:
	.file	8 "/private/tmp/rust-20241128-8290-tgv7i0/rustc-1.83.0-src/library/core/src/ptr" "mod.rs"
	.loc	8 574 0 is_stmt 1               ; /private/tmp/rust-20241128-8290-tgv7i0/rustc-1.83.0-src/library/core/src/ptr/mod.rs:574:0
	.cfi_startproc
; %bb.0:                                ; %start
	sub	sp, sp, #16
	.cfi_def_cfa_offset 16
	str	x0, [sp, #8]
Ltmp25:
	.loc	8 574 1 prologue_end epilogue_begin ; /private/tmp/rust-20241128-8290-tgv7i0/rustc-1.83.0-src/library/core/src/ptr/mod.rs:574:1
	add	sp, sp, #16
	.cfi_def_cfa_offset 0
	ret
Ltmp26:
Lfunc_end7:
	.cfi_endproc
                                        ; -- End function
	.p2align	2                               ; -- Begin function _ZN54_$LT$$LP$$RP$$u20$as$u20$std..process..Termination$GT$6report17hcdc206f403b7b114E
__ZN54_$LT$$LP$$RP$$u20$as$u20$std..process..Termination$GT$6report17hcdc206f403b7b114E: ; @"_ZN54_$LT$$LP$$RP$$u20$as$u20$std..process..Termination$GT$6report17hcdc206f403b7b114E"
Lfunc_begin8:
	.loc	2 2422 0                        ; /private/tmp/rust-20241128-8290-tgv7i0/rustc-1.83.0-src/library/std/src/process.rs:2422:0
	.cfi_startproc
; %bb.0:                                ; %start
	sub	sp, sp, #16
	.cfi_def_cfa_offset 16
Ltmp27:
	.loc	2 2424 6 prologue_end           ; /private/tmp/rust-20241128-8290-tgv7i0/rustc-1.83.0-src/library/std/src/process.rs:2424:6
	mov	w0, #0                          ; =0x0
	.loc	2 2424 6 epilogue_begin is_stmt 0 ; /private/tmp/rust-20241128-8290-tgv7i0/rustc-1.83.0-src/library/std/src/process.rs:2424:6
	add	sp, sp, #16
	.cfi_def_cfa_offset 0
	ret
Ltmp28:
Lfunc_end8:
	.cfi_endproc
                                        ; -- End function
	.p2align	2                               ; -- Begin function _ZN11hello_cargo4main17h3c648fa567c3603fE
__ZN11hello_cargo4main17h3c648fa567c3603fE: ; @_ZN11hello_cargo4main17h3c648fa567c3603fE
Lfunc_begin9:
	.file	9 "/Users/rogerburtonpatel/home/research/vellvm/vellvm-rust/hello_cargo" "src/main.rs"
	.loc	9 1 0 is_stmt 1                 ; src/main.rs:1:0
	.cfi_startproc
; %bb.0:                                ; %start
	sub	sp, sp, #64
	.cfi_def_cfa_offset 64
	stp	x29, x30, [sp, #48]             ; 16-byte Folded Spill
	add	x29, sp, #48
	.cfi_def_cfa w29, 16
	.cfi_offset w30, -8
	.cfi_offset w29, -16
Ltmp29:
	.loc	9 2 5 prologue_end              ; src/main.rs:2:5
Lloh4:
	adrp	x0, l_alloc_bafb82eadb706368ed2b1359532c1af3@PAGE
Lloh5:
	add	x0, x0, l_alloc_bafb82eadb706368ed2b1359532c1af3@PAGEOFF
	mov	x8, sp
	bl	__ZN4core3fmt9Arguments9new_const17h4738388090e9dce9E
	mov	x0, sp
	bl	__ZN3std2io5stdio6_print17hc12278516fb9825bE
	.cfi_def_cfa wsp, 64
	.loc	9 3 2 epilogue_begin            ; src/main.rs:3:2
	ldp	x29, x30, [sp, #48]             ; 16-byte Folded Reload
	add	sp, sp, #64
	.cfi_def_cfa_offset 0
	.cfi_restore w30
	.cfi_restore w29
	ret
Ltmp30:
	.loh AdrpAdd	Lloh4, Lloh5
Lfunc_end9:
	.cfi_endproc
                                        ; -- End function
	.globl	_main                           ; -- Begin function main
	.p2align	2
_main:                                  ; @main
Lfunc_begin10:
	.cfi_startproc
; %bb.0:                                ; %top
	stp	x29, x30, [sp, #-16]!           ; 16-byte Folded Spill
	mov	x29, sp
	.cfi_def_cfa w29, 16
	.cfi_offset w30, -8
	.cfi_offset w29, -16
	mov	x2, x1
                                        ; kill: def $w0 killed $w0 def $x0
	sxtw	x1, w0
Lloh6:
	adrp	x0, __ZN11hello_cargo4main17h3c648fa567c3603fE@PAGE
Lloh7:
	add	x0, x0, __ZN11hello_cargo4main17h3c648fa567c3603fE@PAGEOFF
	mov	w3, #0                          ; =0x0
	bl	__ZN3std2rt10lang_start17h13de66f7f0f5eedeE
                                        ; kill: def $w0 killed $w0 killed $x0
	ldp	x29, x30, [sp], #16             ; 16-byte Folded Reload
	ret
	.loh AdrpAdd	Lloh6, Lloh7
Lfunc_end10:
	.cfi_endproc
                                        ; -- End function
	.section	__DATA,__const
	.p2align	3, 0x0                          ; @vtable.0
l_vtable.0:
	.asciz	"\000\000\000\000\000\000\000\000\b\000\000\000\000\000\000\000\b\000\000\000\000\000\000"
	.quad	__ZN4core3ops8function6FnOnce40call_once$u7b$$u7b$vtable.shim$u7d$$u7d$17hb5e6eff70a2e52dfE
	.quad	__ZN3std2rt10lang_start28_$u7b$$u7b$closure$u7d$$u7d$17h48e9e336c9baec50E
	.quad	__ZN3std2rt10lang_start28_$u7b$$u7b$closure$u7d$$u7d$17h48e9e336c9baec50E

	.section	__TEXT,__literal16,16byte_literals
	.p2align	3, 0x0                          ; @0
l___unnamed_1:
	.space	8
	.space	8

	.section	__TEXT,__const
l_alloc_3213114faf700a46436312d7d5d956d1: ; @alloc_3213114faf700a46436312d7d5d956d1
	.ascii	"Hello, world!\n"

	.section	__DATA,__const
	.p2align	3, 0x0                          ; @alloc_bafb82eadb706368ed2b1359532c1af3
l_alloc_bafb82eadb706368ed2b1359532c1af3:
	.quad	l_alloc_3213114faf700a46436312d7d5d956d1
	.asciz	"\016\000\000\000\000\000\000"
